; Function Attrs: mustprogress nofree norecurse nosync nounwind willreturn memory(read, inaccessiblemem: none) uwtable
define zeroext range(i8 0, 2) i8 @l_Lake_LeanExe_sharedLean(ptr noundef readonly captures(none) %0) local_unnamed_addr #2 {
  %2 = getelementptr inbounds nuw i8, ptr %0, i64 24
  %3 = load ptr, ptr %2, align 8, !tbaa !4
  %4 = getelementptr i8, ptr %3, i64 64
  %.val = load i8, ptr %4, align 1, !tbaa !16
  %5 = load i8, ptr @l_System_Platform_isWindows, align 1, !tbaa !16
  %6 = icmp ne i8 %5, 0
  %7 = icmp ne i8 %.val, 0
  %8 = and i1 %7, %6
  %9 = zext i1 %8 to i8
  ret i8 %9
}